target datalayout = "e-m:e-p270:32:32-p271:32:32-p272:64:64-i64:64-i128:128-f80:128-n8:16:32:64-S128"
target triple = "x86_64-pc-linux-gnu"

%"class.std::__cxx11::basic_string" = type { %"struct.std::__cxx11::basic_string<char>::_Alloc_hider", i64, %union.anon }
%"struct.std::__cxx11::basic_string<char>::_Alloc_hider" = type { ptr }
%union.anon = type { i64, [8 x i8] }
%class.FunctionInvocationBinary = type { %class.FunctionInvocation, i32, %"class.std::__cxx11::basic_string", %"class.std::__cxx11::basic_string" }
%class.FunctionInvocation = type { ptr, i32, %"class.std::vector.38", i8, i8, ptr }
%"class.std::vector.38" = type { %"struct.std::_Vector_base.39" }
%"struct.std::_Vector_base.39" = type { %"struct.std::_Vector_base<const Expression *, std::allocator<const Expression *>>::_Vector_impl" }
%"struct.std::_Vector_base<const Expression *, std::allocator<const Expression *>>::_Vector_impl" = type { %"struct.std::_Vector_base<const Expression *, std::allocator<const Expression *>>::_Vector_impl_data" }
%"struct.std::_Vector_base<const Expression *, std::allocator<const Expression *>>::_Vector_impl_data" = type { ptr, ptr, ptr }

; Function Attrs: mustprogress uwtable
define dso_local void @_ZN24FunctionInvocationBinaryC2ERKS_(ptr noundef nonnull align 8 dereferenceable(128) %0, ptr noundef nonnull align 8 dereferenceable(128) %1) unnamed_addr #5 align 2 personality ptr @__gxx_personality_v0 {
  %3 = alloca ptr, align 8
  %4 = alloca ptr, align 8
  %5 = alloca ptr, align 8
  %6 = alloca i32, align 4
  store ptr %0, ptr %3, align 8
  store ptr %1, ptr %4, align 8
  %7 = load ptr, ptr %3, align 8
  %8 = load ptr, ptr %4, align 8
  call void @_ZN18FunctionInvocationC2ERKS_(ptr noundef nonnull align 8 dereferenceable(56) %7, ptr noundef nonnull align 8 dereferenceable(56) %8)
  store ptr getelementptr inbounds ({ [15 x ptr] }, ptr @_ZTV24FunctionInvocationBinary, i32 0, i32 0, i32 2), ptr %7, align 8
  %9 = getelementptr inbounds %class.FunctionInvocationBinary, ptr %7, i32 0, i32 1
  %10 = load ptr, ptr %4, align 8
  %11 = getelementptr inbounds %class.FunctionInvocationBinary, ptr %10, i32 0, i32 1
  %12 = load i32, ptr %11, align 8
  store i32 %12, ptr %9, align 8
  %13 = getelementptr inbounds %class.FunctionInvocationBinary, ptr %7, i32 0, i32 2
  %14 = load ptr, ptr %4, align 8
  %15 = getelementptr inbounds %class.FunctionInvocationBinary, ptr %14, i32 0, i32 2
  invoke void @_ZNSt7__cxx1112basic_stringIcSt11char_traitsIcESaIcEEC1ERKS4_(ptr noundef nonnull align 8 dereferenceable(32) %13, ptr noundef nonnull align 8 dereferenceable(32) %15)
          to label %16 unwind label %21

16:                                               ; preds = %2
  %17 = getelementptr inbounds %class.FunctionInvocationBinary, ptr %7, i32 0, i32 3
  %18 = load ptr, ptr %4, align 8
  %19 = getelementptr inbounds %class.FunctionInvocationBinary, ptr %18, i32 0, i32 3
  invoke void @_ZNSt7__cxx1112basic_stringIcSt11char_traitsIcESaIcEEC1ERKS4_(ptr noundef nonnull align 8 dereferenceable(32) %17, ptr noundef nonnull align 8 dereferenceable(32) %19)
          to label %20 unwind label %25

20:                                               ; preds = %16
  ret void

21:                                               ; preds = %2
  %22 = landingpad { ptr, i32 }
          cleanup
  %23 = extractvalue { ptr, i32 } %22, 0
  store ptr %23, ptr %5, align 8
  %24 = extractvalue { ptr, i32 } %22, 1
  store i32 %24, ptr %6, align 4
  br label %29

25:                                               ; preds = %16
  %26 = landingpad { ptr, i32 }
          cleanup
  %27 = extractvalue { ptr, i32 } %26, 0
  store ptr %27, ptr %5, align 8
  %28 = extractvalue { ptr, i32 } %26, 1
  store i32 %28, ptr %6, align 4
  call void @_ZNSt7__cxx1112basic_stringIcSt11char_traitsIcESaIcEED1Ev(ptr noundef nonnull align 8 dereferenceable(32) %13) #3
  br label %29

29:                                               ; preds = %25, %21
  call void @_ZN18FunctionInvocationD2Ev(ptr noundef nonnull align 8 dereferenceable(56) %7) #3
  br label %30

30:                                               ; preds = %29
  %31 = load ptr, ptr %5, align 8
  %32 = load i32, ptr %6, align 4
  %33 = insertvalue { ptr, i32 } poison, ptr %31, 0
  %34 = insertvalue { ptr, i32 } %33, i32 %32, 1
  resume { ptr, i32 } %34
}