; Function Attrs: mustprogress uwtable
define dso_local void @_ZN24FunctionInvocationBinaryC2ERKS_(ptr noundef nonnull align 8 dereferenceable(128) %0, ptr noundef nonnull align 8 dereferenceable(128) %1) unnamed_addr #4 align 2 personality ptr @__gxx_personality_v0 {
  tail call void @_ZN18FunctionInvocationC2ERKS_(ptr noundef nonnull align 8 dereferenceable(56) %0, ptr noundef nonnull align 8 dereferenceable(56) %1)
  store ptr getelementptr inbounds ({ [15 x ptr] }, ptr @_ZTV24FunctionInvocationBinary, i64 0, i32 0, i64 2), ptr %0, align 8
  %3 = getelementptr inbounds i8, ptr %0, i64 56
  %4 = getelementptr inbounds i8, ptr %1, i64 56
  %5 = load i32, ptr %4, align 8
  store i32 %5, ptr %3, align 8
  %6 = getelementptr inbounds i8, ptr %0, i64 64
  %7 = getelementptr inbounds i8, ptr %1, i64 64
  invoke void @_ZNSt7__cxx1112basic_stringIcSt11char_traitsIcESaIcEEC1ERKS4_(ptr noundef nonnull align 8 dereferenceable(32) %6, ptr noundef nonnull align 8 dereferenceable(32) %7)
          to label %8 unwind label %12

8:                                                ; preds = %2
  %9 = getelementptr inbounds i8, ptr %0, i64 96
  %10 = getelementptr inbounds i8, ptr %1, i64 96
  invoke void @_ZNSt7__cxx1112basic_stringIcSt11char_traitsIcESaIcEEC1ERKS4_(ptr noundef nonnull align 8 dereferenceable(32) %9, ptr noundef nonnull align 8 dereferenceable(32) %10)
          to label %11 unwind label %14

11:                                               ; preds = %8
  ret void

12:                                               ; preds = %2
  %13 = landingpad { ptr, i32 }
          cleanup
  br label %16

14:                                               ; preds = %8
  %15 = landingpad { ptr, i32 }
          cleanup
  tail call void @_ZNSt7__cxx1112basic_stringIcSt11char_traitsIcESaIcEED1Ev(ptr noundef nonnull align 8 dereferenceable(32) %6) #15
  br label %16

16:                                               ; preds = %14, %12
  %.pn = phi { ptr, i32 } [ %15, %14 ], [ %13, %12 ]
  tail call void @_ZN18FunctionInvocationD2Ev(ptr noundef nonnull align 8 dereferenceable(56) %0) #15
  resume { ptr, i32 } %.pn
}